; Function Attrs: nounwind uwtable
define ptr @l_Lean_Server_Completion_idCompletion___boxed(ptr noundef %0, ptr noundef %1, ptr noundef %2, ptr noundef %3, ptr noundef %4, ptr noundef %5, ptr noundef %6, ptr noundef %7, ptr noundef %8, ptr noundef %9) local_unnamed_addr #0 {
  %11 = ptrtoint ptr %7 to i64
  %12 = and i64 %11, 1
  %.not = icmp eq i64 %12, 0
  br i1 %.not, label %13, label %lean_dec.exit

13:                                               ; preds = %10
  %14 = load i32, ptr %7, align 4, !tbaa !8
  %15 = icmp sgt i32 %14, 1
  br i1 %15, label %16, label %18, !prof !11

16:                                               ; preds = %13
  %17 = add nsw i32 %14, -1
  store i32 %17, ptr %7, align 4, !tbaa !8
  br label %lean_dec.exit

18:                                               ; preds = %13
  %.not.i = icmp eq i32 %14, 0
  br i1 %.not.i, label %lean_dec.exit, label %19

19:                                               ; preds = %18
  tail call void @lean_dec_ref_cold(ptr noundef nonnull %7) #5
  br label %lean_dec.exit

lean_dec.exit:                                    ; preds = %19, %18, %16, %10
  %20 = ptrtoint ptr %2 to i64
  %21 = and i64 %20, 1
  %.not.i12 = icmp eq i64 %21, 0
  br i1 %.not.i12, label %22, label %lean_inc.exit.i

22:                                               ; preds = %lean_dec.exit
  %.val.i.i = load i32, ptr %2, align 4, !tbaa !8
  %23 = icmp sgt i32 %.val.i.i, 0
  br i1 %23, label %24, label %26, !prof !11

24:                                               ; preds = %22
  %25 = add nuw i32 %.val.i.i, 1
  store i32 %25, ptr %2, align 4, !tbaa !8
  br label %lean_inc.exit.i

26:                                               ; preds = %22
  %.not.i.i = icmp eq i32 %.val.i.i, 0
  br i1 %.not.i.i, label %lean_inc.exit.i, label %27

27:                                               ; preds = %26
  tail call void @lean_inc_ref_cold(ptr noundef nonnull %2) #5
  br label %lean_inc.exit.i

lean_inc.exit.i:                                  ; preds = %27, %26, %24, %lean_dec.exit
  tail call void @lean_inc_heartbeat() #5
  %28 = tail call noalias ptr @mi_malloc_small(i64 noundef 64) #5
  %29 = icmp eq ptr %28, null
  br i1 %29, label %30, label %l_Lean_Server_Completion_idCompletion.exit

30:                                               ; preds = %lean_inc.exit.i
  tail call void @lean_internal_panic_out_of_memory() #6
  unreachable

l_Lean_Server_Completion_idCompletion.exit:       ; preds = %lean_inc.exit.i
  %31 = and i64 %11, 510
  %32 = or disjoint i64 %31, 1
  %33 = inttoptr i64 %32 to ptr
  %34 = getelementptr inbounds nuw i8, ptr %28, i64 4
  store i32 1, ptr %28, align 4, !tbaa !8
  store i32 -184549312, ptr %34, align 4
  %35 = getelementptr inbounds nuw i8, ptr %28, i64 8
  store ptr @l___private_Lean_Server_Completion_CompletionCollectors_0__Lean_Server_Completion_idCompletionCore___boxed, ptr %35, align 8, !tbaa !4
  %36 = getelementptr inbounds nuw i8, ptr %28, i64 16
  store i16 13, ptr %36, align 8, !tbaa !16
  %37 = getelementptr inbounds nuw i8, ptr %28, i64 18
  store i16 5, ptr %37, align 2, !tbaa !16
  %38 = getelementptr inbounds nuw i8, ptr %28, i64 24
  store ptr %2, ptr %38, align 8, !tbaa !4
  %39 = getelementptr inbounds nuw i8, ptr %28, i64 32
  store ptr %4, ptr %39, align 8, !tbaa !4
  %40 = getelementptr inbounds nuw i8, ptr %28, i64 40
  store ptr %5, ptr %40, align 8, !tbaa !4
  %41 = getelementptr inbounds nuw i8, ptr %28, i64 48
  store ptr %6, ptr %41, align 8, !tbaa !4
  %42 = getelementptr inbounds nuw i8, ptr %28, i64 56
  store ptr %33, ptr %42, align 8, !tbaa !4
  %43 = tail call ptr @l___private_Lean_Server_Completion_CompletionCollectors_0__Lean_Server_Completion_runM(ptr noundef %0, ptr noundef %1, ptr noundef %2, ptr noundef %3, ptr noundef nonnull %28, ptr noundef %8, ptr noundef %9)
  ret ptr %43
}